(dp0
Vac
p1
I37
sVvn
p2
I7
sVan
p3
I29
sVvp
p4
I25
sVap
p5
I32
sVas
p6
I3
sVex
p7
I39
sVgi
p8
I40
sVnh
p9
I36
sVni
p10
I9
sVnm
p11
I22
sVno
p12
I24
sVna
p13
I35
sVnb
p14
I5
sVnc
p15
I23
sVnd
p16
I14
sVne
p17
I19
sVng
p18
I34
sVny
p19
I10
sVpj
p20
I21
sVnr
p21
I38
sVns
p22
I30
sVnu
p23
I11
sVdf
p24
I27
sVde
p25
I17
sVO
p26
I41
sVnp
p27
I33
sVa
p28
I28
sVd
p29
I12
sVf
p30
I18
sVm
p31
I6
sVpc
p32
I31
sVn
p33
I4
sVp
p34
I15
sVs
p35
I13
sVr
p36
I20
sVu
p37
I26
sVt
p38
I16
sVw
p39
I2
sVv
p40
I8
s.