(dp0
VM_t_d
p1
I49
sVM_t_f
p2
I74
sVM_cf
p3
I85
sVE_as
p4
I217
sVE_ex_st
p5
I238
sVM_oc_f
p6
I164
sVB_chem_name
p7
I183
sVM_t_h
p8
I17
sVB_un
p9
I82
sVE_hb_name
p10
I79
sVM__ent_u
p11
I219
sVE_ai_anme
p12
I216
sVM_his_dis
p13
I220
sVB_mh_mbv
p14
I128
sVB_gh_dis
p15
I113
sVM_chem_name
p16
I195
sVB_pi_job
p17
I196
sVB_as_r
p18
I143
sVB_per_name
p19
I222
sVE_mh_lmp
p20
I147
sVE_pi_name
p21
I114
sVM_pi_age
p22
I43
sVB_pi_na
p23
I135
sVM_ex_sp
p24
I221
sVB_nm_f
p25
I52
sVM_ex_st
p26
I197
sVM_gi_name
p27
I10
sVE_oper_t
p28
I223
sVE_hb_ct
p29
I161
sVB_mr_nce
p30
I224
sVB_ex
p31
I225
sVM_as_na
p32
I66
sVB_nm_w
p33
I60
sVS_un
p34
I167
sVE_gh_dis
p35
I115
sVS_mr_num_10
p36
I148
sVB_nm_r
p37
I149
sVM_mh_mc_1
p38
I163
sVM_ent_u
p39
I16
sVB_mr_num9
p40
I226
sVE_mr_tm
p41
I108
sVM_ent_v
p42
I12
sVE__ent_u
p43
I227
sVM_as_sh
p44
I168
sVE_oc_name
p45
I67
sVM_mr_tm
p46
I93
sVB_gi_name
p47
I14
sVB_dis_his
p48
I75
sVE_ex_result
p49
I87
sVM_hb_name
p50
I71
sVM_vi_name
p51
I117
sVM_as_name
p52
I9
sVE_ex_anme
p53
I169
sVE_as_name
p54
I2
sVM_pi_or
p55
I150
sVE_mr_nce
p56
I228
sVE_mh_co
p57
I136
sVE_nm_r
p58
I151
sVB_ex_name
p59
I20
sVB_ex_anme
p60
I170
sVE_ent_u
p61
I22
sVE_ent_v
p62
I7
sVM_nb_name
p63
I229
sVE_mh_mt
p64
I137
sVS_gi_name
p65
I64
sVM_mh_lmp
p66
I89
sVE_oper_nd
p67
I230
sVM_as_co
p68
I171
sVM_nm_name
p69
I28
sVS_mr_num_9
p70
I198
sVB_nd_name
p71
I25
sVS_t_f
p72
I190
sVS_ext
p73
I120
sVB_as_co
p74
I130
sVS_t_h
p75
I158
sVB_pi_age
p76
I57
sVE_nd_name
p77
I24
sVB_vi_name
p78
I44
sVB_mh_mph
p79
I177
sVB_mh_mc2
p80
I232
sVB_mh_mc1
p81
I199
sVS_nd_name
p82
I132
sVE_cf
p83
I138
sVE_ah_name
p84
I251
sVB_mh_age
p85
I233
sVM_mr_num1
p86
I201
sVS_as_na
p87
I191
sVE_ext
p88
I34
sVB_mr_sh
p89
I121
sVE_mr_sh
p90
I122
sVM_ng
p91
I77
sVE_as_r
p92
I145
sVS_mr_num10
p93
I218
sVM_oper_t
p94
I185
sVM_ex_result
p95
I99
sVS_ai_name
p96
I63
sVB_pi_ht
p97
I100
sVM_pi_bp
p98
I65
sVB_oc_f
p99
I133
sVM_nd_ty
p100
I48
sVB_hb_ct
p101
I146
sVB_ent_v
p102
I6
sVM_as_si
p103
I56
sVE_oper_name
p104
I95
sVE_as_na
p105
I54
sVM_mh_age
p106
I172
sVE_mh_mbv
p107
I129
sVE_nm_f
p108
I53
sVE_t_h
p109
I42
sVO
p110
I1
sVE_ex_name
p111
I21
sVE_mh_mc1
p112
I204
sVS_vi_name
p113
I50
sVE_t_f
p114
I46
sVB_his_dis
p115
I235
sVM_ex_name
p116
I18
sVE_nm_w
p117
I61
sVE_pi_na
p118
I139
sVE_pi_or
p119
I173
sVE_ha_name
p120
I236
sVE_gh_sta
p121
I80
sVM_ai_name
p122
I19
sVM_per_name
p123
I179
sVE_as_co
p124
I131
sVE_ex_sp
p125
I205
sVS_ent_v
p126
I29
sVS_ent_u
p127
I38
sVS_as_num
p128
I206
sVB_mr_num_6
p129
I184
sVE_mr_sta
p130
I103
sVS_ng
p131
I11
sVE_ex
p132
I239
sVE_pi_ht
p133
I101
sVE_his_dis
p134
I248
sVM_nd_name
p135
I13
sVE_ai_name
p136
I26
sVB_hb_name
p137
I83
sVB_mr_num1
p138
I200
sVB_mr_num6
p139
I207
sVM_oper_name
p140
I59
sVM_as_num
p141
I175
sVB_pi_name
p142
I116
sVB_mh_clot
p143
I176
sVE_pi_gd
p144
I156
sVB_as_num
p145
I91
sVE_t_d
p146
I39
sVB_nd_ty
p147
I69
sVB_mh_co
p148
I140
sVE_gh_rs
p149
I96
sVM_mh_mbv
p150
I162
sVB_cf
p151
I141
sVS__ent_u
p152
I240
sVB_oper_nd
p153
I241
sVE_un
p154
I84
sVE_ex_te
p155
I242
sVM_hb_ct
p156
I159
sVE_chem_name
p157
I186
sVS_nm_w
p158
I243
sVM_mh_mc
p159
I106
sVE_mr_num9
p160
I244
sVM_gh_rs
p161
I107
sVE_mh_mc_1
p162
I192
sVM_pi_job
p163
I144
sVE_nb_name
p164
I245
sVS_as_sh
p165
I270
sVE_mr_num1
p166
I208
sVB_nm_name
p167
I32
sVM_mh_ma
p168
I174
sVE_mr_num6
p169
I209
sVS_gh_rs
p170
I110
sVB_pi_bp
p171
I119
sVE_mh_ma
p172
I247
sVB_t_f
p173
I47
sVB_t_d
p174
I40
sVS_nb
p175
I36
sVB_t_h
p176
I41
sVB_nd_r
p177
I250
sVE_oc_f
p178
I134
sVS_pi_gd
p179
I62
sVS_mr_num
p180
I202
sVB_mr_sta
p181
I104
sVM_mr_sh
p182
I126
sVE_per_name
p183
I252
sVB_mh_mc_1
p184
I193
sVS_mr_num_6
p185
I187
sVM_ex_anme
p186
I194
sVE_pi_job
p187
I211
sVE_as_num
p188
I92
sVE_mh_age
p189
I246
sVB_ai_name
p190
I27
sVB_ext
p191
I35
sVB_mh_mt
p192
I142
sVS_dis_his
p193
I90
sVE_mh_clot
p194
I178
sVE_pi_age
p195
I58
sVB_ex_te
p196
I253
sVS_as_name
p197
I73
sVM_nb
p198
I8
sVS_hb_name
p199
I234
sVB_ent_u
p200
I23
sVB_mh_ma
p201
I254
sVM_un
p202
I86
sVB_mh_mc
p203
I124
sVB_as_si
p204
I98
sVE_mr_rs
p205
I212
sVM_ai_anme
p206
I237
sVM_gh_dis
p207
I72
sVB_pi_gd
p208
I157
sVE_nm_name
p209
I33
sVB_nb
p210
I4
sVE_pi_bp
p211
I118
sVB_pi_or
p212
I180
sVB_ng
p213
I30
sVB_oc_name
p214
I68
sVM_oper_nd
p215
I188
sVB_mr_tm
p216
I111
sVB_as_te
p217
I255
sVM_oc_name
p218
I37
sVB__ent_u
p219
I256
sVM_pi_name
p220
I112
sVE_nd_r
p221
I257
sVB_ai_anme
p222
I258
sVB_nb_name
p223
I259
sVB_mr_num10
p224
I260
sVS_his_dis
p225
I213
sVM_as
p226
I214
sVE_vi_name
p227
I45
sVB_as_name
p228
I3
sVS_nm_name
p229
I261
sVB_as
p230
I262
sVE_ng
p231
I31
sVE_nb
p232
I5
sVB_ah_name
p233
I267
sVM_as_r
p234
I160
sVB_ex_st
p235
I249
sVM_dis_his
p236
I78
sVE_mh_mc
p237
I125
sVM_nm_f
p238
I51
sVE_gi_name
p239
I15
sVB_oper_t
p240
I263
sVM_mh_mt
p241
I127
sVM_ha_name
p242
I264
sVM_ex_te
p243
I265
sVM_nm_r
p244
I109
sVE_mh_mph
p245
I181
sVB_oper_name
p246
I94
sVM_nm_w
p247
I123
sVM_ah_name
p248
I165
sVB_ex_sp
p249
I210
sVE_dis_his
p250
I76
sVB_gh_rs
p251
I97
sVE_as_te
p252
I231
sVB_gh_sta
p253
I81
sVE_mr_num_6
p254
I189
sVB_ha_name
p255
I268
sVE_as_si
p256
I102
sVE_as_sh
p257
I154
sVB_mh_lmp
p258
I155
sVE_mr_num10
p259
I266
sVM_mr_rs
p260
I166
sVM_ext
p261
I105
sVB_ex_result
p262
I88
sVE_nd_ty
p263
I70
sVM_mh_mc1
p264
I182
sVB_as_na
p265
I55
sVB_as_sh
p266
I153
sVB_mr_rs
p267
I215
sVS_ex_name
p268
I203
sVE_mh_mc2
p269
I269
sVS_mr_np
p270
I152
s.